target datalayout = "e-m:e-p270:32:32-p271:32:32-p272:64:64-i64:64-i128:128-f80:128-n8:16:32:64-S128"
target triple = "x86_64-pc-linux-gnu"

%struct.SHA1_CTX = type { [5 x i32], [2 x i32], [64 x i8] }
%struct.sdshdr8 = type { i8, i8, i8, [0 x i8] }
%struct.sdshdr16 = type <{ i16, i16, i8, [0 x i8] }>
%struct.sdshdr32 = type <{ i32, i32, i8, [0 x i8] }>
%struct.sdshdr64 = type <{ i64, i64, i8, [0 x i8] }>

@.str = private unnamed_addr constant [17 x i8] c"0123456789abcdef\00", align 1

; Function Attrs: nounwind uwtable
define dso_local void @sha1hex(ptr noundef %0, ptr noundef %1, i64 noundef %2) #0 {
  %4 = alloca ptr, align 8
  %5 = alloca ptr, align 8
  %6 = alloca i64, align 8
  %7 = alloca %struct.SHA1_CTX, align 4
  %8 = alloca [20 x i8], align 16
  %9 = alloca ptr, align 8
  %10 = alloca i32, align 4
  store ptr %0, ptr %4, align 8, !tbaa !16
  store ptr %1, ptr %5, align 8, !tbaa !16
  store i64 %2, ptr %6, align 8, !tbaa !18
  call void @llvm.lifetime.start.p0(i64 92, ptr %7) #14
  call void @llvm.lifetime.start.p0(i64 20, ptr %8) #14
  call void @llvm.lifetime.start.p0(i64 8, ptr %9) #14
  store ptr @.str, ptr %9, align 8, !tbaa !16
  call void @llvm.lifetime.start.p0(i64 4, ptr %10) #14
  call void @SHA1Init(ptr noundef %7)
  %11 = load ptr, ptr %5, align 8, !tbaa !16
  %12 = load i64, ptr %6, align 8, !tbaa !18
  %13 = trunc i64 %12 to i32
  call void @SHA1Update(ptr noundef %7, ptr noundef %11, i32 noundef %13)
  %14 = getelementptr inbounds [20 x i8], ptr %8, i64 0, i64 0
  call void @SHA1Final(ptr noundef %14, ptr noundef %7)
  store i32 0, ptr %10, align 4, !tbaa !19
  br label %15

15:                                               ; preds = %51, %3
  %16 = load i32, ptr %10, align 4, !tbaa !19
  %17 = icmp slt i32 %16, 20
  br i1 %17, label %18, label %54

18:                                               ; preds = %15
  %19 = load ptr, ptr %9, align 8, !tbaa !16
  %20 = load i32, ptr %10, align 4, !tbaa !19
  %21 = sext i32 %20 to i64
  %22 = getelementptr inbounds [20 x i8], ptr %8, i64 0, i64 %21
  %23 = load i8, ptr %22, align 1, !tbaa !21
  %24 = zext i8 %23 to i32
  %25 = and i32 %24, 240
  %26 = ashr i32 %25, 4
  %27 = sext i32 %26 to i64
  %28 = getelementptr inbounds i8, ptr %19, i64 %27
  %29 = load i8, ptr %28, align 1, !tbaa !21
  %30 = load ptr, ptr %4, align 8, !tbaa !16
  %31 = load i32, ptr %10, align 4, !tbaa !19
  %32 = mul nsw i32 %31, 2
  %33 = sext i32 %32 to i64
  %34 = getelementptr inbounds i8, ptr %30, i64 %33
  store i8 %29, ptr %34, align 1, !tbaa !21
  %35 = load ptr, ptr %9, align 8, !tbaa !16
  %36 = load i32, ptr %10, align 4, !tbaa !19
  %37 = sext i32 %36 to i64
  %38 = getelementptr inbounds [20 x i8], ptr %8, i64 0, i64 %37
  %39 = load i8, ptr %38, align 1, !tbaa !21
  %40 = zext i8 %39 to i32
  %41 = and i32 %40, 15
  %42 = sext i32 %41 to i64
  %43 = getelementptr inbounds i8, ptr %35, i64 %42
  %44 = load i8, ptr %43, align 1, !tbaa !21
  %45 = load ptr, ptr %4, align 8, !tbaa !16
  %46 = load i32, ptr %10, align 4, !tbaa !19
  %47 = mul nsw i32 %46, 2
  %48 = add nsw i32 %47, 1
  %49 = sext i32 %48 to i64
  %50 = getelementptr inbounds i8, ptr %45, i64 %49
  store i8 %44, ptr %50, align 1, !tbaa !21
  br label %51

51:                                               ; preds = %18
  %52 = load i32, ptr %10, align 4, !tbaa !19
  %53 = add nsw i32 %52, 1
  store i32 %53, ptr %10, align 4, !tbaa !19
  br label %15, !llvm.loop !22

54:                                               ; preds = %15
  %55 = load ptr, ptr %4, align 8, !tbaa !16
  %56 = getelementptr inbounds i8, ptr %55, i64 40
  store i8 0, ptr %56, align 1, !tbaa !21
  call void @llvm.lifetime.end.p0(i64 4, ptr %10) #14
  call void @llvm.lifetime.end.p0(i64 8, ptr %9) #14
  call void @llvm.lifetime.end.p0(i64 20, ptr %8) #14
  call void @llvm.lifetime.end.p0(i64 92, ptr %7) #14
  ret void
}

; Function Attrs: inlinehint nounwind uwtable
define internal i64 @sdslen(ptr noundef %0) #6 {
  %2 = alloca i64, align 8
  %3 = alloca ptr, align 8
  %4 = alloca i8, align 1
  %5 = alloca i32, align 4
  store ptr %0, ptr %3, align 8, !tbaa !16
  call void @llvm.lifetime.start.p0(i64 1, ptr %4) #14
  %6 = load ptr, ptr %3, align 8, !tbaa !16
  %7 = getelementptr inbounds i8, ptr %6, i64 -1
  %8 = load i8, ptr %7, align 1, !tbaa !21
  store i8 %8, ptr %4, align 1, !tbaa !21
  %9 = load i8, ptr %4, align 1, !tbaa !21
  %10 = zext i8 %9 to i32
  %11 = and i32 %10, 7
  switch i32 %11, label %40 [
    i32 0, label %12
    i32 1, label %17
    i32 2, label %23
    i32 3, label %29
    i32 4, label %35
  ]

12:                                               ; preds = %1
  %13 = load i8, ptr %4, align 1, !tbaa !21
  %14 = zext i8 %13 to i32
  %15 = ashr i32 %14, 3
  %16 = sext i32 %15 to i64
  store i64 %16, ptr %2, align 8
  store i32 1, ptr %5, align 4
  br label %41

17:                                               ; preds = %1
  %18 = load ptr, ptr %3, align 8, !tbaa !16
  %19 = getelementptr inbounds i8, ptr %18, i64 -3
  %20 = getelementptr inbounds nuw %struct.sdshdr8, ptr %19, i32 0, i32 0
  %21 = load i8, ptr %20, align 1, !tbaa !21
  %22 = zext i8 %21 to i64
  store i64 %22, ptr %2, align 8
  store i32 1, ptr %5, align 4
  br label %41

23:                                               ; preds = %1
  %24 = load ptr, ptr %3, align 8, !tbaa !16
  %25 = getelementptr inbounds i8, ptr %24, i64 -5
  %26 = getelementptr inbounds nuw %struct.sdshdr16, ptr %25, i32 0, i32 0
  %27 = load i16, ptr %26, align 1, !tbaa !109
  %28 = zext i16 %27 to i64
  store i64 %28, ptr %2, align 8
  store i32 1, ptr %5, align 4
  br label %41

29:                                               ; preds = %1
  %30 = load ptr, ptr %3, align 8, !tbaa !16
  %31 = getelementptr inbounds i8, ptr %30, i64 -9
  %32 = getelementptr inbounds nuw %struct.sdshdr32, ptr %31, i32 0, i32 0
  %33 = load i32, ptr %32, align 1, !tbaa !19
  %34 = zext i32 %33 to i64
  store i64 %34, ptr %2, align 8
  store i32 1, ptr %5, align 4
  br label %41

35:                                               ; preds = %1
  %36 = load ptr, ptr %3, align 8, !tbaa !16
  %37 = getelementptr inbounds i8, ptr %36, i64 -17
  %38 = getelementptr inbounds nuw %struct.sdshdr64, ptr %37, i32 0, i32 0
  %39 = load i64, ptr %38, align 1, !tbaa !18
  store i64 %39, ptr %2, align 8
  store i32 1, ptr %5, align 4
  br label %41

40:                                               ; preds = %1
  store i64 0, ptr %2, align 8
  store i32 1, ptr %5, align 4
  br label %41

41:                                               ; preds = %40, %35, %29, %23, %17, %12
  call void @llvm.lifetime.end.p0(i64 1, ptr %4) #14
  %42 = load i64, ptr %2, align 8
  ret i64 %42
}

; Function Attrs: nounwind uwtable
define internal void @evalCalcFunctionName(i32 noundef %0, ptr noundef %1, ptr noundef %2) #0 {
  %4 = alloca i32, align 4
  %5 = alloca ptr, align 8
  %6 = alloca ptr, align 8
  %7 = alloca i32, align 4
  %8 = alloca ptr, align 8
  store i32 %0, ptr %4, align 4, !tbaa !19
  store ptr %1, ptr %5, align 8, !tbaa !16
  store ptr %2, ptr %6, align 8, !tbaa !16
  %9 = load ptr, ptr %6, align 8, !tbaa !16
  %10 = getelementptr inbounds i8, ptr %9, i64 0
  store i8 102, ptr %10, align 1, !tbaa !21
  %11 = load ptr, ptr %6, align 8, !tbaa !16
  %12 = getelementptr inbounds i8, ptr %11, i64 1
  store i8 95, ptr %12, align 1, !tbaa !21
  %13 = load i32, ptr %4, align 4, !tbaa !19
  %14 = icmp ne i32 %13, 0
  br i1 %14, label %21, label %15

15:                                               ; preds = %3
  %16 = load ptr, ptr %6, align 8, !tbaa !16
  %17 = getelementptr inbounds i8, ptr %16, i64 2
  %18 = load ptr, ptr %5, align 8, !tbaa !16
  %19 = load ptr, ptr %5, align 8, !tbaa !16
  %20 = call i64 @sdslen(ptr noundef %19)
  call void @sha1hex(ptr noundef %17, ptr noundef %18, i64 noundef %20)
  br label %71

21:                                               ; preds = %3
  call void @llvm.lifetime.start.p0(i64 4, ptr %7) #14
  call void @llvm.lifetime.start.p0(i64 8, ptr %8) #14
  %22 = load ptr, ptr %5, align 8, !tbaa !16
  store ptr %22, ptr %8, align 8, !tbaa !16
  store i32 0, ptr %7, align 4, !tbaa !19
  br label %23

23:                                               ; preds = %65, %21
  %24 = load i32, ptr %7, align 4, !tbaa !19
  %25 = icmp slt i32 %24, 40
  br i1 %25, label %26, label %68

26:                                               ; preds = %23
  %27 = load ptr, ptr %8, align 8, !tbaa !16
  %28 = load i32, ptr %7, align 4, !tbaa !19
  %29 = sext i32 %28 to i64
  %30 = getelementptr inbounds i8, ptr %27, i64 %29
  %31 = load i8, ptr %30, align 1, !tbaa !21
  %32 = sext i8 %31 to i32
  %33 = icmp sge i32 %32, 65
  br i1 %33, label %34, label %50

34:                                               ; preds = %26
  %35 = load ptr, ptr %8, align 8, !tbaa !16
  %36 = load i32, ptr %7, align 4, !tbaa !19
  %37 = sext i32 %36 to i64
  %38 = getelementptr inbounds i8, ptr %35, i64 %37
  %39 = load i8, ptr %38, align 1, !tbaa !21
  %40 = sext i8 %39 to i32
  %41 = icmp sle i32 %40, 90
  br i1 %41, label %42, label %50

42:                                               ; preds = %34
  %43 = load ptr, ptr %8, align 8, !tbaa !16
  %44 = load i32, ptr %7, align 4, !tbaa !19
  %45 = sext i32 %44 to i64
  %46 = getelementptr inbounds i8, ptr %43, i64 %45
  %47 = load i8, ptr %46, align 1, !tbaa !21
  %48 = sext i8 %47 to i32
  %49 = add nsw i32 %48, 32
  br label %57

50:                                               ; preds = %34, %26
  %51 = load ptr, ptr %8, align 8, !tbaa !16
  %52 = load i32, ptr %7, align 4, !tbaa !19
  %53 = sext i32 %52 to i64
  %54 = getelementptr inbounds i8, ptr %51, i64 %53
  %55 = load i8, ptr %54, align 1, !tbaa !21
  %56 = sext i8 %55 to i32
  br label %57

57:                                               ; preds = %50, %42
  %58 = phi i32 [ %49, %42 ], [ %56, %50 ]
  %59 = trunc i32 %58 to i8
  %60 = load ptr, ptr %6, align 8, !tbaa !16
  %61 = load i32, ptr %7, align 4, !tbaa !19
  %62 = add nsw i32 %61, 2
  %63 = sext i32 %62 to i64
  %64 = getelementptr inbounds i8, ptr %60, i64 %63
  store i8 %59, ptr %64, align 1, !tbaa !21
  br label %65

65:                                               ; preds = %57
  %66 = load i32, ptr %7, align 4, !tbaa !19
  %67 = add nsw i32 %66, 1
  store i32 %67, ptr %7, align 4, !tbaa !19
  br label %23, !llvm.loop !133

68:                                               ; preds = %23
  %69 = load ptr, ptr %6, align 8, !tbaa !16
  %70 = getelementptr inbounds i8, ptr %69, i64 42
  store i8 0, ptr %70, align 1, !tbaa !21
  call void @llvm.lifetime.end.p0(i64 8, ptr %8) #14
  call void @llvm.lifetime.end.p0(i64 4, ptr %7) #14
  br label %71

71:                                               ; preds = %68, %15
  ret void
}