; Function Attrs: nounwind uwtable
define internal fastcc void @evalCalcFunctionName(i32 noundef %0, ptr noundef %1, ptr noundef nonnull writeonly captures(none) initializes((0, 2)) %2) unnamed_addr #0 {
  %4 = alloca %struct.SHA1_CTX, align 4
  %5 = alloca [20 x i8], align 16
  store i8 102, ptr %2, align 1, !tbaa !13
  %6 = getelementptr inbounds nuw i8, ptr %2, i64 1
  store i8 95, ptr %6, align 1, !tbaa !13
  %.not = icmp eq i32 %0, 0
  %7 = getelementptr inbounds nuw i8, ptr %2, i64 2
  br i1 %.not, label %8, label %.preheader

8:                                                ; preds = %3
  %9 = getelementptr inbounds i8, ptr %1, i64 -1
  %10 = load i8, ptr %9, align 1, !tbaa !13
  %11 = zext i8 %10 to i32
  %12 = and i32 %11, 7
  switch i32 %12, label %sdslen.exit [
    i32 0, label %13
    i32 1, label %16
    i32 2, label %20
    i32 3, label %24
    i32 4, label %28
  ]

13:                                               ; preds = %8
  %14 = lshr i32 %11, 3
  %15 = zext nneg i32 %14 to i64
  br label %sdslen.exit

16:                                               ; preds = %8
  %17 = getelementptr inbounds i8, ptr %1, i64 -3
  %18 = load i8, ptr %17, align 1, !tbaa !13
  %19 = zext i8 %18 to i64
  br label %sdslen.exit

20:                                               ; preds = %8
  %21 = getelementptr inbounds i8, ptr %1, i64 -5
  %22 = load i16, ptr %21, align 1, !tbaa !94
  %23 = zext i16 %22 to i64
  br label %sdslen.exit

24:                                               ; preds = %8
  %25 = getelementptr inbounds i8, ptr %1, i64 -9
  %26 = load i32, ptr %25, align 1, !tbaa !91
  %27 = zext i32 %26 to i64
  br label %sdslen.exit

28:                                               ; preds = %8
  %29 = getelementptr inbounds i8, ptr %1, i64 -17
  %30 = load i64, ptr %29, align 1, !tbaa !95
  br label %sdslen.exit

sdslen.exit:                                      ; preds = %8, %13, %16, %20, %24, %28
  %.0.i = phi i64 [ %30, %28 ], [ %27, %24 ], [ %23, %20 ], [ %19, %16 ], [ %15, %13 ], [ 0, %8 ]
  call void @llvm.lifetime.start.p0(i64 92, ptr nonnull %4) #19
  call void @llvm.lifetime.start.p0(i64 20, ptr nonnull %5) #19
  call void @SHA1Init(ptr noundef nonnull %4) #19
  %31 = trunc i64 %.0.i to i32
  call void @SHA1Update(ptr noundef nonnull %4, ptr noundef nonnull %1, i32 noundef %31) #19
  call void @SHA1Final(ptr noundef nonnull %5, ptr noundef nonnull %4) #19
  br label %32

32:                                               ; preds = %32, %sdslen.exit
  %indvars.iv.i = phi i64 [ 0, %sdslen.exit ], [ %indvars.iv.next.i, %32 ]
  %33 = getelementptr inbounds nuw [20 x i8], ptr %5, i64 0, i64 %indvars.iv.i
  %34 = load i8, ptr %33, align 1, !tbaa !13
  %35 = lshr i8 %34, 4
  %36 = zext nneg i8 %35 to i64
  %37 = getelementptr inbounds nuw i8, ptr @.str, i64 %36
  %38 = load i8, ptr %37, align 1, !tbaa !13
  %39 = shl nuw nsw i64 %indvars.iv.i, 1
  %40 = getelementptr inbounds nuw i8, ptr %7, i64 %39
  store i8 %38, ptr %40, align 1, !tbaa !13
  %41 = and i8 %34, 15
  %42 = zext nneg i8 %41 to i64
  %43 = getelementptr inbounds nuw i8, ptr @.str, i64 %42
  %44 = load i8, ptr %43, align 1, !tbaa !13
  %45 = or disjoint i64 %39, 1
  %46 = getelementptr inbounds nuw i8, ptr %7, i64 %45
  store i8 %44, ptr %46, align 1, !tbaa !13
  %indvars.iv.next.i = add nuw nsw i64 %indvars.iv.i, 1
  %exitcond.not.i = icmp eq i64 %indvars.iv.next.i, 20
  br i1 %exitcond.not.i, label %sha1hex.exit, label %32, !llvm.loop !14

sha1hex.exit:                                     ; preds = %32
  %47 = getelementptr inbounds nuw i8, ptr %2, i64 42
  store i8 0, ptr %47, align 1, !tbaa !13
  call void @llvm.lifetime.end.p0(i64 20, ptr nonnull %5) #19
  call void @llvm.lifetime.end.p0(i64 92, ptr nonnull %4) #19
  br label %54

.preheader:                                       ; preds = %3, %.preheader
  %indvars.iv = phi i64 [ %indvars.iv.next, %.preheader ], [ 0, %3 ]
  %48 = getelementptr inbounds nuw i8, ptr %1, i64 %indvars.iv
  %49 = load i8, ptr %48, align 1, !tbaa !13
  %50 = add i8 %49, -65
  %or.cond = icmp ult i8 %50, 26
  %51 = add nuw nsw i8 %49, 32
  %spec.select = select i1 %or.cond, i8 %51, i8 %49
  %gep = getelementptr inbounds nuw i8, ptr %7, i64 %indvars.iv
  store i8 %spec.select, ptr %gep, align 1, !tbaa !13
  %indvars.iv.next = add nuw nsw i64 %indvars.iv, 1
  %exitcond.not = icmp eq i64 %indvars.iv.next, 40
  br i1 %exitcond.not, label %52, label %.preheader, !llvm.loop !120

52:                                               ; preds = %.preheader
  %53 = getelementptr inbounds nuw i8, ptr %2, i64 42
  store i8 0, ptr %53, align 1, !tbaa !13
  br label %54

54:                                               ; preds = %52, %sha1hex.exit
  ret void
}